; Function Attrs: mustprogress uwtable
define hidden noundef range(i32 -1, 1) i32 @_ZN4ncnn9Extractor5inputEPKcRKNS_3MatE(ptr noundef nonnull readonly align 8 captures(none) dereferenceable(16) %0, ptr noundef %1, ptr noundef nonnull align 8 dereferenceable(72) %2) local_unnamed_addr #2 align 2 {
  %4 = getelementptr inbounds nuw i8, ptr %0, i64 8
  %5 = load ptr, ptr %4, align 8, !tbaa !213
  %6 = load ptr, ptr %5, align 8, !tbaa !210
  %7 = getelementptr inbounds nuw i8, ptr %6, i64 72
  %8 = load ptr, ptr %7, align 8, !tbaa !7
  %9 = getelementptr inbounds nuw i8, ptr %8, i64 8
  %10 = getelementptr inbounds nuw i8, ptr %8, i64 16
  %11 = load ptr, ptr %10, align 8, !tbaa !119
  %12 = load ptr, ptr %9, align 8, !tbaa !65
  %.not.i = icmp eq ptr %11, %12
  br i1 %.not.i, label %_ZNK4ncnn3Net23find_blob_index_by_nameEPKc.exit.thread, label %.lr.ph.i

.lr.ph.i:                                         ; preds = %3, %17
  %13 = phi ptr [ %23, %17 ], [ %12, %3 ]
  %.01218.i = phi i64 [ %18, %17 ], [ 0, %3 ]
  %14 = getelementptr inbounds nuw %"class.ncnn::Blob", ptr %13, i64 %.01218.i
  %15 = tail call noundef i32 @_ZNKSt7__cxx1112basic_stringIcSt11char_traitsIcESaIcEE7compareEPKc(ptr noundef nonnull align 8 dereferenceable(32) %14, ptr noundef %1) #26
  %16 = icmp eq i32 %15, 0
  br i1 %16, label %_ZNK4ncnn3Net23find_blob_index_by_nameEPKc.exit, label %17

17:                                               ; preds = %.lr.ph.i
  %18 = add nuw i64 %.01218.i, 1
  %19 = load ptr, ptr %7, align 8, !tbaa !7
  %20 = getelementptr inbounds nuw i8, ptr %19, i64 8
  %21 = getelementptr inbounds nuw i8, ptr %19, i64 16
  %22 = load ptr, ptr %21, align 8, !tbaa !119
  %23 = load ptr, ptr %20, align 8, !tbaa !65
  %24 = ptrtoint ptr %22 to i64
  %25 = ptrtoint ptr %23 to i64
  %26 = sub i64 %24, %25
  %27 = sdiv exact i64 %26, 112
  %28 = icmp ult i64 %18, %27
  br i1 %28, label %.lr.ph.i, label %_ZNK4ncnn3Net23find_blob_index_by_nameEPKc.exit.thread, !llvm.loop !177

_ZNK4ncnn3Net23find_blob_index_by_nameEPKc.exit.thread: ; preds = %17, %3
  %29 = load ptr, ptr @stderr, align 8, !tbaa !157
  %30 = tail call i32 (ptr, ptr, ...) @fprintf(ptr noundef %29, ptr noundef nonnull @.str.46, ptr noundef %1) #33
  %31 = load ptr, ptr @stderr, align 8, !tbaa !157
  %fputc.i = tail call i32 @fputc(i32 10, ptr %31)
  br label %34

_ZNK4ncnn3Net23find_blob_index_by_nameEPKc.exit:  ; preds = %.lr.ph.i
  %32 = trunc i64 %.01218.i to i32
  %33 = icmp eq i32 %32, -1
  br i1 %33, label %34, label %61

34:                                               ; preds = %_ZNK4ncnn3Net23find_blob_index_by_nameEPKc.exit.thread, %_ZNK4ncnn3Net23find_blob_index_by_nameEPKc.exit
  %35 = load ptr, ptr @stderr, align 8, !tbaa !157
  %36 = tail call i64 @fwrite(ptr nonnull @.str.50, i64 3, i64 1, ptr %35) #32
  %37 = load ptr, ptr @stderr, align 8, !tbaa !157
  %fputc = tail call i32 @fputc(i32 10, ptr %37)
  %38 = load ptr, ptr %4, align 8, !tbaa !213
  %39 = load ptr, ptr %38, align 8, !tbaa !210
  %40 = getelementptr inbounds nuw i8, ptr %39, i64 72
  %41 = load ptr, ptr %40, align 8, !tbaa !7
  %42 = getelementptr inbounds nuw i8, ptr %41, i64 104
  %43 = getelementptr inbounds nuw i8, ptr %41, i64 112
  %44 = load ptr, ptr %43, align 8, !tbaa !127
  %45 = load ptr, ptr %42, align 8, !tbaa !124
  %.not = icmp eq ptr %44, %45
  br i1 %.not, label %.loopexit, label %.lr.ph

.lr.ph:                                           ; preds = %34, %.lr.ph
  %46 = phi ptr [ %55, %.lr.ph ], [ %45, %34 ]
  %.016 = phi i64 [ %53, %.lr.ph ], [ 0, %34 ]
  %47 = load ptr, ptr @stderr, align 8, !tbaa !157
  %48 = getelementptr inbounds nuw ptr, ptr %46, i64 %.016
  %49 = load ptr, ptr %48, align 8, !tbaa !130
  %50 = trunc i64 %.016 to i32
  %51 = tail call i32 (ptr, ptr, ...) @fprintf(ptr noundef %47, ptr noundef nonnull @.str.51, ptr noundef %49, i32 noundef %50) #33
  %52 = load ptr, ptr @stderr, align 8, !tbaa !157
  %fputc13 = tail call i32 @fputc(i32 10, ptr %52)
  %53 = add nuw i64 %.016, 1
  %54 = load ptr, ptr %43, align 8, !tbaa !127
  %55 = load ptr, ptr %42, align 8, !tbaa !124
  %56 = ptrtoint ptr %54 to i64
  %57 = ptrtoint ptr %55 to i64
  %58 = sub i64 %56, %57
  %59 = ashr exact i64 %58, 3
  %60 = icmp ult i64 %53, %59
  br i1 %60, label %.lr.ph, label %.loopexit, !llvm.loop !220

61:                                               ; preds = %_ZNK4ncnn3Net23find_blob_index_by_nameEPKc.exit
  %62 = tail call noundef i32 @_ZN4ncnn9Extractor5inputEiRKNS_3MatE(ptr noundef nonnull align 8 dereferenceable(16) %0, i32 noundef %32, ptr noundef nonnull align 8 dereferenceable(72) %2)
  br label %.loopexit

.loopexit:                                        ; preds = %.lr.ph, %34, %61
  %.011 = phi i32 [ %62, %61 ], [ -1, %34 ], [ -1, %.lr.ph ]
  ret i32 %.011
}